; Function Attrs: null_pointer_is_valid sspstrong uwtable
define internal noalias noundef ptr @dissect_fields_ssime(ptr noundef %0, ptr noundef %1, ptr noundef %2, i32 noundef %3, i32 noundef %4, ptr readnone captures(none) %5) #0 {
  %.not = icmp eq i32 %4, 3
  br i1 %.not, label %9, label %7

7:                                                ; preds = %6
  %8 = tail call ptr @proto_tree_add_expert(ptr noundef %2, ptr noundef %0, ptr noundef nonnull @ei_alcap_parameter_field_bad_length, ptr noundef %1, i32 noundef %3, i32 noundef %4)
  br label %19

9:                                                ; preds = %6
  %10 = load i32, ptr @hf_alcap_ssime_frm, align 4
  %11 = tail call ptr @proto_tree_add_item(ptr noundef %2, i32 noundef %10, ptr noundef %1, i32 noundef %3, i32 noundef 1, i32 noundef 0)
  %12 = load i32, ptr @hf_alcap_ssime_lb, align 4
  %13 = tail call ptr @proto_tree_add_item(ptr noundef %2, i32 noundef %12, ptr noundef %1, i32 noundef %3, i32 noundef 1, i32 noundef 0)
  %14 = load i32, ptr @hf_alcap_ssime_mult, align 4
  %15 = tail call ptr @proto_tree_add_item(ptr noundef %2, i32 noundef %14, ptr noundef %1, i32 noundef %3, i32 noundef 1, i32 noundef 0)
  %16 = load i32, ptr @hf_alcap_ssime_max, align 4
  %17 = add i32 %3, 1
  %18 = tail call ptr @proto_tree_add_item(ptr noundef %2, i32 noundef %16, ptr noundef %1, i32 noundef %17, i32 noundef 2, i32 noundef 0)
  br label %19

19:                                               ; preds = %9, %7
  ret ptr null
}